target datalayout = "e-m:e-p270:32:32-p271:32:32-p272:64:64-i64:64-i128:128-f80:128-n8:16:32:64-S128"
target triple = "x86_64-pc-linux-gnu"

%"class.nanogui::Color" = type { %"struct.nanogui::Array" }
%"struct.nanogui::Array" = type { [4 x float] }
%"class.std::__1::function.16" = type { %"class.std::__1::__function::__value_func.20" }
%"class.std::__1::__function::__value_func.20" = type { %"struct.std::__1::aligned_storage<24>::type", ptr, [8 x i8] }
%"struct.std::__1::aligned_storage<24>::type" = type { [32 x i8] }
%"class.tev::ImageButton" = type { %"class.nanogui::Widget.base", %"class.std::__1::basic_string", ptr, i8, i8, %"class.std::__1::function", i8, [15 x i8], %"class.std::__1::function.11", %"class.std::__1::function.11", i64, i64, %"struct.nanogui::Array.2", i64, i64, [8 x i8] }
%"class.nanogui::Widget.base" = type <{ %"class.nanogui::Object.base", [4 x i8], ptr, %"class.nanogui::ref", %"class.nanogui::ref.1", %"struct.nanogui::Array.2", %"struct.nanogui::Array.2", %"struct.nanogui::Array.2", %"class.std::__1::vector", i8, i8, i8, i8, [4 x i8], %"class.std::__1::basic_string", i32, float, i32 }>
%"class.nanogui::Object.base" = type <{ ptr, %"struct.std::__1::atomic" }>
%"struct.std::__1::atomic" = type { %"struct.std::__1::__atomic_base" }
%"struct.std::__1::__atomic_base" = type { %"struct.std::__1::__atomic_base.0" }
%"struct.std::__1::__atomic_base.0" = type { %"struct.std::__1::__cxx_atomic_impl" }
%"struct.std::__1::__cxx_atomic_impl" = type { %"struct.std::__1::__cxx_atomic_base_impl" }
%"struct.std::__1::__cxx_atomic_base_impl" = type { i32 }
%"class.nanogui::ref" = type { ptr }
%"class.nanogui::ref.1" = type { ptr }
%"class.std::__1::vector" = type { ptr, ptr, %"class.std::__1::__compressed_pair" }
%"class.std::__1::__compressed_pair" = type { %"struct.std::__1::__compressed_pair_elem" }
%"struct.std::__1::__compressed_pair_elem" = type { ptr }
%"class.std::__1::basic_string" = type { %"class.std::__1::__compressed_pair.4" }
%"class.std::__1::__compressed_pair.4" = type { %"struct.std::__1::__compressed_pair_elem.5" }
%"struct.std::__1::__compressed_pair_elem.5" = type { %"struct.std::__1::basic_string<char>::__rep" }
%"struct.std::__1::basic_string<char>::__rep" = type { %union.anon }
%union.anon = type { %"struct.std::__1::basic_string<char>::__long" }
%"struct.std::__1::basic_string<char>::__long" = type { %struct.anon.6, i64, ptr }
%struct.anon.6 = type { i64 }
%"class.std::__1::function" = type { %"class.std::__1::__function::__value_func" }
%"class.std::__1::__function::__value_func" = type { %"struct.std::__1::aligned_storage<24>::type", ptr, [8 x i8] }
%"class.std::__1::function.11" = type { %"class.std::__1::__function::__value_func.14" }
%"class.std::__1::__function::__value_func.14" = type { %"struct.std::__1::aligned_storage<24>::type", ptr, [8 x i8] }
%"struct.nanogui::Array.2" = type { [2 x i32] }
%"class.nanogui::Widget" = type <{ %"class.nanogui::Object.base", [4 x i8], ptr, %"class.nanogui::ref", %"class.nanogui::ref.1", %"struct.nanogui::Array.2", %"struct.nanogui::Array.2", %"struct.nanogui::Array.2", %"class.std::__1::vector", i8, i8, i8, i8, [4 x i8], %"class.std::__1::basic_string", i32, float, i32, [4 x i8] }>
%"class.nanogui::TextBox" = type { %"class.nanogui::Widget.base", i8, i8, i8, %"class.std::__1::basic_string", %"class.std::__1::basic_string", i32, %"class.std::__1::basic_string", %"class.std::__1::basic_string", i32, [12 x i8], %"class.std::__1::function.16", i8, %"class.std::__1::basic_string", %"class.std::__1::basic_string", i32, i32, %"struct.nanogui::Array.2", %"struct.nanogui::Array.2", %"struct.nanogui::Array.2", i32, float, float, double, %"class.nanogui::Color" }

@_ZTINSt3__117bad_function_callE = linkonce_odr dso_local constant { ptr, ptr, ptr } { ptr getelementptr inbounds (ptr, ptr @_ZTVN10__cxxabiv120__si_class_type_infoE, i64 2), ptr @_ZTSNSt3__117bad_function_callE, ptr @_ZTISt9exception }, comdat, align 8
@_ZTVNSt3__117bad_function_callE = linkonce_odr dso_local unnamed_addr constant { [5 x ptr] } { [5 x ptr] [ptr null, ptr @_ZTINSt3__117bad_function_callE, ptr @_ZNSt3__117bad_function_callD2Ev, ptr @_ZNSt3__117bad_function_callD0Ev, ptr @_ZNKSt9exception4whatEv] }, comdat, align 8
@_ZTVSt9exception = external unnamed_addr constant { [5 x ptr] }, align 8

; Function Attrs: mustprogress nounwind uwtable
define linkonce_odr hidden void @_ZNSt9exceptionC2B8ne190000Ev(ptr noundef nonnull align 8 dereferenceable(8) %0) unnamed_addr #1 comdat align 2 {
  %2 = alloca ptr, align 8
  store ptr %0, ptr %2, align 8
  %3 = load ptr, ptr %2, align 8
  store ptr getelementptr inbounds ({ [5 x ptr] }, ptr @_ZTVSt9exception, i32 0, i32 0, i32 2), ptr %3, align 8
  ret void
}

; Function Attrs: mustprogress nounwind uwtable
define linkonce_odr hidden void @_ZNSt3__117bad_function_callC2B8ne190000Ev(ptr noundef nonnull align 8 dereferenceable(8) %0) unnamed_addr #1 comdat align 2 {
  %2 = alloca ptr, align 8
  store ptr %0, ptr %2, align 8
  %3 = load ptr, ptr %2, align 8
  call void @_ZNSt9exceptionC2B8ne190000Ev(ptr noundef nonnull align 8 dereferenceable(8) %3) #19
  store ptr getelementptr inbounds ({ [5 x ptr] }, ptr @_ZTVNSt3__117bad_function_callE, i32 0, i32 0, i32 2), ptr %3, align 8
  ret void
}

; Function Attrs: mustprogress noreturn uwtable
define linkonce_odr hidden void @_ZNSt3__125__throw_bad_function_callB8ne190000Ev() #14 comdat {
  %1 = call ptr @__cxa_allocate_exception(i64 8) #19
  call void @llvm.memset.p0.i64(ptr align 16 %1, i8 0, i64 8, i1 false)
  call void @_ZNSt3__117bad_function_callC2B8ne190000Ev(ptr noundef nonnull align 8 dereferenceable(8) %1) #19
  call void @__cxa_throw(ptr %1, ptr @_ZTINSt3__117bad_function_callE, ptr @_ZNSt3__117bad_function_callD2Ev) #23
  unreachable
}

; Function Attrs: mustprogress uwtable
define linkonce_odr hidden void @_ZNKSt3__110__function12__value_funcIFvvEEclB8ne190000Ev(ptr noundef nonnull align 16 dereferenceable(40) %0) #4 comdat align 2 {
  %2 = alloca ptr, align 8
  store ptr %0, ptr %2, align 8
  %3 = load ptr, ptr %2, align 8
  %4 = getelementptr inbounds %"class.std::__1::__function::__value_func.14", ptr %3, i32 0, i32 1
  %5 = load ptr, ptr %4, align 16
  %6 = icmp eq ptr %5, null
  br i1 %6, label %7, label %8

7:                                                ; preds = %1
  call void @_ZNSt3__125__throw_bad_function_callB8ne190000Ev() #23
  unreachable

8:                                                ; preds = %1
  %9 = getelementptr inbounds %"class.std::__1::__function::__value_func.14", ptr %3, i32 0, i32 1
  %10 = load ptr, ptr %9, align 16
  %11 = load ptr, ptr %10, align 8
  %12 = getelementptr inbounds ptr, ptr %11, i64 6
  %13 = load ptr, ptr %12, align 8
  call void %13(ptr noundef nonnull align 8 dereferenceable(8) %10)
  ret void
}

; Function Attrs: mustprogress nounwind uwtable
define linkonce_odr hidden noundef zeroext i1 @_ZNKSt3__110__function12__value_funcIFvvEEcvbB8ne190000Ev(ptr noundef nonnull align 16 dereferenceable(40) %0) #1 comdat align 2 {
  %2 = alloca ptr, align 8
  store ptr %0, ptr %2, align 8
  %3 = load ptr, ptr %2, align 8
  %4 = getelementptr inbounds %"class.std::__1::__function::__value_func.14", ptr %3, i32 0, i32 1
  %5 = load ptr, ptr %4, align 16
  %6 = icmp ne ptr %5, null
  ret i1 %6
}

; Function Attrs: mustprogress uwtable
define linkonce_odr hidden void @_ZNKSt3__18functionIFvvEEclEv(ptr noundef nonnull align 16 dereferenceable(48) %0) #4 comdat align 2 {
  %2 = alloca ptr, align 8
  store ptr %0, ptr %2, align 8
  %3 = load ptr, ptr %2, align 8
  %4 = getelementptr inbounds %"class.std::__1::function.11", ptr %3, i32 0, i32 0
  call void @_ZNKSt3__110__function12__value_funcIFvvEEclB8ne190000Ev(ptr noundef nonnull align 16 dereferenceable(40) %4)
  ret void
}

; Function Attrs: mustprogress nounwind uwtable
define linkonce_odr hidden noundef zeroext i1 @_ZNKSt3__18functionIFvvEEcvbB8ne190000Ev(ptr noundef nonnull align 16 dereferenceable(48) %0) #1 comdat align 2 {
  %2 = alloca ptr, align 8
  store ptr %0, ptr %2, align 8
  %3 = load ptr, ptr %2, align 8
  %4 = getelementptr inbounds %"class.std::__1::function.11", ptr %3, i32 0, i32 0
  %5 = call noundef zeroext i1 @_ZNKSt3__110__function12__value_funcIFvvEEcvbB8ne190000Ev(ptr noundef nonnull align 16 dereferenceable(40) %4) #19
  ret i1 %5
}

; Function Attrs: mustprogress nounwind uwtable
define linkonce_odr dso_local void @_ZN7nanogui5ArrayIiLm2EEC2Ei(ptr noundef nonnull align 4 dereferenceable(8) %0, i32 noundef %1) unnamed_addr #1 comdat align 2 {
  %3 = alloca ptr, align 8
  %4 = alloca i32, align 4
  %5 = alloca i64, align 8
  store ptr %0, ptr %3, align 8
  store i32 %1, ptr %4, align 4
  %6 = load ptr, ptr %3, align 8
  store i64 0, ptr %5, align 8
  br label %7

7:                                                ; preds = %15, %2
  %8 = load i64, ptr %5, align 8
  %9 = icmp ult i64 %8, 2
  br i1 %9, label %10, label %18

10:                                               ; preds = %7
  %11 = load i32, ptr %4, align 4
  %12 = getelementptr inbounds %"struct.nanogui::Array.2", ptr %6, i32 0, i32 0
  %13 = load i64, ptr %5, align 8
  %14 = getelementptr inbounds [2 x i32], ptr %12, i64 0, i64 %13
  store i32 %11, ptr %14, align 4
  br label %15

15:                                               ; preds = %10
  %16 = load i64, ptr %5, align 8
  %17 = add i64 %16, 1
  store i64 %17, ptr %5, align 8
  br label %7, !llvm.loop !5

18:                                               ; preds = %7
  ret void
}

; Function Attrs: mustprogress nounwind uwtable
define linkonce_odr dso_local noundef zeroext i1 @_ZNK7nanogui6Widget7visibleEv(ptr noundef nonnull align 8 dereferenceable(132) %0) #1 comdat align 2 {
  %2 = alloca ptr, align 8
  store ptr %0, ptr %2, align 8
  %3 = load ptr, ptr %2, align 8
  %4 = getelementptr inbounds %"class.nanogui::Widget", ptr %3, i32 0, i32 9
  %5 = load i8, ptr %4, align 8
  %6 = trunc i8 %5 to i1
  ret i1 %6
}

; Function Attrs: mustprogress nounwind uwtable
define linkonce_odr dso_local void @_ZN7nanogui6Widget11set_visibleEb(ptr noundef nonnull align 8 dereferenceable(132) %0, i1 noundef zeroext %1) #1 comdat align 2 {
  %3 = alloca ptr, align 8
  %4 = alloca i8, align 1
  store ptr %0, ptr %3, align 8
  %5 = zext i1 %1 to i8
  store i8 %5, ptr %4, align 1
  %6 = load ptr, ptr %3, align 8
  %7 = load i8, ptr %4, align 1
  %8 = trunc i8 %7 to i1
  %9 = getelementptr inbounds %"class.nanogui::Widget", ptr %6, i32 0, i32 9
  %10 = zext i1 %8 to i8
  store i8 %10, ptr %9, align 8
  ret void
}

; Function Attrs: mustprogress uwtable
define linkonce_odr dso_local void @_ZN3tev11ImageButton10setCaptionERKNSt3__112basic_stringIcNS1_11char_traitsIcEENS1_9allocatorIcEEEE(ptr noundef nonnull align 16 dereferenceable(376) %0, ptr noundef nonnull align 8 dereferenceable(24) %1) #4 comdat align 2 {
  %3 = alloca ptr, align 8
  %4 = alloca ptr, align 8
  %5 = alloca %"struct.nanogui::Array.2", align 4
  store ptr %0, ptr %3, align 8
  store ptr %1, ptr %4, align 8
  %6 = load ptr, ptr %3, align 8
  %7 = load ptr, ptr %4, align 8
  %8 = getelementptr inbounds %"class.tev::ImageButton", ptr %6, i32 0, i32 1
  %9 = call noundef nonnull align 8 dereferenceable(24) ptr @_ZNSt3__112basic_stringIcNS_11char_traitsIcEENS_9allocatorIcEEEaSERKS5_(ptr noundef nonnull align 8 dereferenceable(24) %8, ptr noundef nonnull align 8 dereferenceable(24) %7)
  call void @_ZN7nanogui5ArrayIiLm2EEC2Ei(ptr noundef nonnull align 4 dereferenceable(8) %5, i32 noundef 0)
  %10 = getelementptr inbounds %"class.tev::ImageButton", ptr %6, i32 0, i32 12
  call void @llvm.memcpy.p0.p0.i64(ptr align 16 %10, ptr align 4 %5, i64 8, i1 false)
  %11 = getelementptr inbounds %"class.tev::ImageButton", ptr %6, i32 0, i32 13
  store i64 0, ptr %11, align 8
  %12 = getelementptr inbounds %"class.tev::ImageButton", ptr %6, i32 0, i32 14
  store i64 0, ptr %12, align 16
  %13 = getelementptr inbounds %"class.tev::ImageButton", ptr %6, i32 0, i32 9
  %14 = call noundef zeroext i1 @_ZNKSt3__18functionIFvvEEcvbB8ne190000Ev(ptr noundef nonnull align 16 dereferenceable(48) %13) #19
  br i1 %14, label %15, label %17

15:                                               ; preds = %2
  %16 = getelementptr inbounds %"class.tev::ImageButton", ptr %6, i32 0, i32 9
  call void @_ZNKSt3__18functionIFvvEEclEv(ptr noundef nonnull align 16 dereferenceable(48) %16)
  br label %17

17:                                               ; preds = %15, %2
  ret void
}

; Function Attrs: mustprogress nounwind uwtable
define linkonce_odr dso_local noundef nonnull align 8 dereferenceable(24) ptr @_ZNK7nanogui7TextBox5valueEv(ptr noundef nonnull align 16 dereferenceable(432) %0) #1 comdat align 2 {
  %2 = alloca ptr, align 8
  store ptr %0, ptr %2, align 8
  %3 = load ptr, ptr %2, align 8
  %4 = getelementptr inbounds %"class.nanogui::TextBox", ptr %3, i32 0, i32 4
  ret ptr %4
}

; Function Attrs: mustprogress nounwind uwtable
define linkonce_odr dso_local void @_ZN7nanogui6Widget11set_focusedEb(ptr noundef nonnull align 8 dereferenceable(132) %0, i1 noundef zeroext %1) #1 comdat align 2 {
  %3 = alloca ptr, align 8
  %4 = alloca i8, align 1
  store ptr %0, ptr %3, align 8
  %5 = zext i1 %1 to i8
  store i8 %5, ptr %4, align 1
  %6 = load ptr, ptr %3, align 8
  %7 = load i8, ptr %4, align 1
  %8 = trunc i8 %7 to i1
  %9 = getelementptr inbounds %"class.nanogui::Widget", ptr %6, i32 0, i32 11
  %10 = zext i1 %8 to i8
  store i8 %10, ptr %9, align 2
  ret void
}

; Function Attrs: mustprogress nounwind uwtable
define linkonce_odr dso_local noundef zeroext i1 @_ZNK3tev11ImageButton14textBoxVisibleEv(ptr noundef nonnull align 16 dereferenceable(376) %0) #1 comdat align 2 {
  %2 = alloca ptr, align 8
  store ptr %0, ptr %2, align 8
  %3 = load ptr, ptr %2, align 8
  %4 = getelementptr inbounds %"class.tev::ImageButton", ptr %3, i32 0, i32 2
  %5 = load ptr, ptr %4, align 16
  %6 = call noundef zeroext i1 @_ZNK7nanogui6Widget7visibleEv(ptr noundef nonnull align 8 dereferenceable(132) %5)
  ret i1 %6
}

; Function Attrs: mustprogress uwtable
define dso_local void @_ZN3tev11ImageButton11hideTextBoxEv(ptr noundef nonnull align 16 dereferenceable(376) %0) #4 align 2 {
  %2 = alloca ptr, align 8
  store ptr %0, ptr %2, align 8
  %3 = load ptr, ptr %2, align 8
  %4 = call noundef zeroext i1 @_ZNK3tev11ImageButton14textBoxVisibleEv(ptr noundef nonnull align 16 dereferenceable(376) %3)
  br i1 %4, label %6, label %5

5:                                                ; preds = %1
  br label %14

6:                                                ; preds = %1
  %7 = getelementptr inbounds %"class.tev::ImageButton", ptr %3, i32 0, i32 2
  %8 = load ptr, ptr %7, align 16
  call void @_ZN7nanogui6Widget11set_focusedEb(ptr noundef nonnull align 8 dereferenceable(132) %8, i1 noundef zeroext false)
  %9 = getelementptr inbounds %"class.tev::ImageButton", ptr %3, i32 0, i32 2
  %10 = load ptr, ptr %9, align 16
  %11 = call noundef nonnull align 8 dereferenceable(24) ptr @_ZNK7nanogui7TextBox5valueEv(ptr noundef nonnull align 16 dereferenceable(432) %10)
  call void @_ZN3tev11ImageButton10setCaptionERKNSt3__112basic_stringIcNS1_11char_traitsIcEENS1_9allocatorIcEEEE(ptr noundef nonnull align 16 dereferenceable(376) %3, ptr noundef nonnull align 8 dereferenceable(24) %11)
  %12 = getelementptr inbounds %"class.tev::ImageButton", ptr %3, i32 0, i32 2
  %13 = load ptr, ptr %12, align 16
  call void @_ZN7nanogui6Widget11set_visibleEb(ptr noundef nonnull align 8 dereferenceable(132) %13, i1 noundef zeroext false)
  br label %14

14:                                               ; preds = %6, %5
  ret void
}