; Function Attrs: mustprogress uwtable
define dso_local void @_ZN3tev11ImageButton11hideTextBoxEv(ptr noundef nonnull align 16 dereferenceable(376) %0) local_unnamed_addr #3 align 2 {
  %2 = getelementptr inbounds i8, ptr %0, i64 160
  %3 = load ptr, ptr %2, align 16
  %4 = getelementptr inbounds i8, ptr %3, i64 88
  %5 = load i8, ptr %4, align 8
  %6 = and i8 %5, 1
  %.not = icmp eq i8 %6, 0
  br i1 %.not, label %21, label %7

7:                                                ; preds = %1
  %8 = getelementptr inbounds i8, ptr %3, i64 90
  store i8 0, ptr %8, align 2
  %9 = load ptr, ptr %2, align 16
  %10 = getelementptr inbounds i8, ptr %9, i64 136
  %11 = getelementptr inbounds i8, ptr %0, i64 136
  %12 = tail call noundef nonnull align 8 dereferenceable(24) ptr @_ZNSt3__112basic_stringIcNS_11char_traitsIcEENS_9allocatorIcEEEaSERKS5_(ptr noundef nonnull align 8 dereferenceable(24) %11, ptr noundef nonnull align 8 dereferenceable(24) %10)
  %13 = getelementptr inbounds i8, ptr %0, i64 352
  %14 = getelementptr inbounds i8, ptr %0, i64 320
  tail call void @llvm.memset.p0.i64(ptr noundef nonnull align 16 dereferenceable(24) %13, i8 0, i64 24, i1 false)
  %15 = load ptr, ptr %14, align 16
  %.not.i = icmp eq ptr %15, null
  br i1 %.not.i, label %_ZN3tev11ImageButton10setCaptionERKNSt3__112basic_stringIcNS1_11char_traitsIcEENS1_9allocatorIcEEEE.exit, label %_ZNKSt3__18functionIFvvEEclEv.exit.i

_ZNKSt3__18functionIFvvEEclEv.exit.i:             ; preds = %7
  %16 = load ptr, ptr %15, align 8
  %17 = getelementptr inbounds i8, ptr %16, i64 48
  %18 = load ptr, ptr %17, align 8
  tail call void %18(ptr noundef nonnull align 8 dereferenceable(8) %15)
  br label %_ZN3tev11ImageButton10setCaptionERKNSt3__112basic_stringIcNS1_11char_traitsIcEENS1_9allocatorIcEEEE.exit

_ZN3tev11ImageButton10setCaptionERKNSt3__112basic_stringIcNS1_11char_traitsIcEENS1_9allocatorIcEEEE.exit: ; preds = %7, %_ZNKSt3__18functionIFvvEEclEv.exit.i
  %19 = load ptr, ptr %2, align 16
  %20 = getelementptr inbounds i8, ptr %19, i64 88
  store i8 0, ptr %20, align 8
  br label %21

21:                                               ; preds = %1, %_ZN3tev11ImageButton10setCaptionERKNSt3__112basic_stringIcNS1_11char_traitsIcEENS1_9allocatorIcEEEE.exit
  ret void
}